opt subtitle "HI-TECH Software Omniscient Code Generator (Lite mode) build 6446"

opt pagewidth 120

	opt lm

	processor	16F877A
clrc	macro
	bcf	3,0
	endm
clrz	macro
	bcf	3,2
	endm
setc	macro
	bsf	3,0
	endm
setz	macro
	bsf	3,2
	endm
skipc	macro
	btfss	3,0
	endm
skipz	macro
	btfss	3,2
	endm
skipnc	macro
	btfsc	3,0
	endm
skipnz	macro
	btfsc	3,2
	endm
indf	equ	0
indf0	equ	0
pc	equ	2
pcl	equ	2
status	equ	3
fsr	equ	4
fsr0	equ	4
c	equ	1
z	equ	0
pclath	equ	10
# 2 "C:\Users\sreya\Desktop\embeded\ADC\ADC.c"
	psect config,class=CONFIG,delta=2 ;#
# 2 "C:\Users\sreya\Desktop\embeded\ADC\ADC.c"
	dw 0x3F72 ;#
	FNCALL	_main,_initial
	FNCALL	_main,___awtoft
	FNCALL	_main,___ftmul
	FNCALL	_main,___fttol
	FNCALL	_main,___awdiv
	FNCALL	_main,___awmod
	FNCALL	_main,_command
	FNCALL	_main,_data
	FNCALL	_initial,_command
	FNCALL	___awtoft,___ftpack
	FNCALL	___ftmul,___ftpack
	FNROOT	_main
	global	_ADCON0
psect	text226,local,class=CODE,delta=2
global __ptext226
__ptext226:
_ADCON0	set	31
	global	_ADRESH
_ADRESH	set	30
	global	_PORTD
_PORTD	set	8
	global	_CHS0
_CHS0	set	251
	global	_CHS1
_CHS1	set	252
	global	_CHS2
_CHS2	set	253
	global	_RC0
_RC0	set	56
	global	_RC1
_RC1	set	57
	global	_RC2
_RC2	set	58
	global	_ADCON1
_ADCON1	set	159
	global	_ADRESL
_ADRESL	set	158
	global	_TRISC
_TRISC	set	135
	global	_TRISD
_TRISD	set	136
	file	"ADC.as"
	line	#
psect cinit,class=CODE,delta=2
global start_initialization
start_initialization:

psect cinit,class=CODE,delta=2
global end_of_initialization

;End of C runtime variable initialization code

end_of_initialization:
clrf status
ljmp _main	;jump to C main() function
psect	cstackCOMMON,class=COMMON,space=1
global __pcstackCOMMON
__pcstackCOMMON:
	global	?_command
?_command:	; 0 bytes @ 0x0
	global	??_command
??_command:	; 0 bytes @ 0x0
	global	?_data
?_data:	; 0 bytes @ 0x0
	global	??_data
??_data:	; 0 bytes @ 0x0
	global	?_initial
?_initial:	; 0 bytes @ 0x0
	global	?_main
?_main:	; 0 bytes @ 0x0
	global	?___awdiv
?___awdiv:	; 2 bytes @ 0x0
	global	?___awmod
?___awmod:	; 2 bytes @ 0x0
	global	?___ftpack
?___ftpack:	; 3 bytes @ 0x0
	global	___awdiv@divisor
___awdiv@divisor:	; 2 bytes @ 0x0
	global	___awmod@divisor
___awmod@divisor:	; 2 bytes @ 0x0
	global	___ftpack@arg
___ftpack@arg:	; 3 bytes @ 0x0
	ds	1
	global	command@y
command@y:	; 1 bytes @ 0x1
	global	data@z
data@z:	; 1 bytes @ 0x1
	ds	1
	global	??_initial
??_initial:	; 0 bytes @ 0x2
	global	___awdiv@dividend
___awdiv@dividend:	; 2 bytes @ 0x2
	global	___awmod@dividend
___awmod@dividend:	; 2 bytes @ 0x2
	ds	1
	global	___ftpack@exp
___ftpack@exp:	; 1 bytes @ 0x3
	ds	1
	global	??___awdiv
??___awdiv:	; 0 bytes @ 0x4
	global	??___awmod
??___awmod:	; 0 bytes @ 0x4
	global	___ftpack@sign
___ftpack@sign:	; 1 bytes @ 0x4
	ds	1
	global	??___ftpack
??___ftpack:	; 0 bytes @ 0x5
	global	___awdiv@counter
___awdiv@counter:	; 1 bytes @ 0x5
	global	___awmod@counter
___awmod@counter:	; 1 bytes @ 0x5
	ds	1
	global	___awdiv@sign
___awdiv@sign:	; 1 bytes @ 0x6
	global	___awmod@sign
___awmod@sign:	; 1 bytes @ 0x6
	ds	1
	global	___awdiv@quotient
___awdiv@quotient:	; 2 bytes @ 0x7
	ds	1
	global	?___fttol
?___fttol:	; 4 bytes @ 0x8
	global	___fttol@f1
___fttol@f1:	; 3 bytes @ 0x8
	ds	4
	global	??___awtoft
??___awtoft:	; 0 bytes @ 0xC
	ds	2
psect	cstackBANK0,class=BANK0,space=1
global __pcstackBANK0
__pcstackBANK0:
	global	??___fttol
??___fttol:	; 0 bytes @ 0x0
	ds	4
	global	___fttol@sign1
___fttol@sign1:	; 1 bytes @ 0x4
	ds	1
	global	___fttol@lval
___fttol@lval:	; 4 bytes @ 0x5
	ds	4
	global	___fttol@exp1
___fttol@exp1:	; 1 bytes @ 0x9
	ds	1
	global	?___awtoft
?___awtoft:	; 3 bytes @ 0xA
	global	___awtoft@c
___awtoft@c:	; 2 bytes @ 0xA
	ds	3
	global	___awtoft@sign
___awtoft@sign:	; 1 bytes @ 0xD
	ds	1
	global	?___ftmul
?___ftmul:	; 3 bytes @ 0xE
	global	___ftmul@f1
___ftmul@f1:	; 3 bytes @ 0xE
	ds	3
	global	___ftmul@f2
___ftmul@f2:	; 3 bytes @ 0x11
	ds	3
	global	??___ftmul
??___ftmul:	; 0 bytes @ 0x14
	ds	4
	global	___ftmul@exp
___ftmul@exp:	; 1 bytes @ 0x18
	ds	1
	global	___ftmul@f3_as_product
___ftmul@f3_as_product:	; 3 bytes @ 0x19
	ds	3
	global	___ftmul@cntr
___ftmul@cntr:	; 1 bytes @ 0x1C
	ds	1
	global	___ftmul@sign
___ftmul@sign:	; 1 bytes @ 0x1D
	ds	1
	global	??_main
??_main:	; 0 bytes @ 0x1E
	ds	3
	global	main@c
main@c:	; 2 bytes @ 0x21
	ds	2
	global	main@e
main@e:	; 2 bytes @ 0x23
	ds	2
	global	main@f
main@f:	; 2 bytes @ 0x25
	ds	2
	global	main@g
main@g:	; 2 bytes @ 0x27
	ds	2
	global	main@b
main@b:	; 2 bytes @ 0x29
	ds	2
	global	main@d
main@d:	; 2 bytes @ 0x2B
	ds	2
	global	main@temp
main@temp:	; 2 bytes @ 0x2D
	ds	2
;;Data sizes: Strings 0, constant 0, data 0, bss 0, persistent 0 stack 0
;;Auto spaces:   Size  Autos    Used
;; COMMON          14     14      14
;; BANK0           80     47      47
;; BANK1           80      0       0
;; BANK3           96      0       0
;; BANK2           96      0       0

;;
;; Pointer list with targets:

;; ?___ftpack	float  size(1) Largest target is 0
;;
;; ?___fttol	long  size(1) Largest target is 0
;;
;; ?___awmod	int  size(1) Largest target is 0
;;
;; ?___awdiv	int  size(1) Largest target is 0
;;
;; ?___ftmul	float  size(1) Largest target is 0
;;
;; ?___awtoft	float  size(1) Largest target is 0
;;


;;
;; Critical Paths under _main in COMMON
;;
;;   _main->___awtoft
;;   _initial->_command
;;   ___awtoft->___fttol
;;   ___ftmul->___awtoft
;;   ___fttol->___ftpack
;;
;; Critical Paths under _main in BANK0
;;
;;   _main->___ftmul
;;   ___awtoft->___fttol
;;   ___ftmul->___awtoft
;;
;; Critical Paths under _main in BANK1
;;
;;   None.
;;
;; Critical Paths under _main in BANK3
;;
;;   None.
;;
;; Critical Paths under _main in BANK2
;;
;;   None.

;;
;;Main: autosize = 0, tempsize = 3, incstack = 0, save=0
;;

;;
;;Call Graph Tables:
;;
;; ---------------------------------------------------------------------------------
;; (Depth) Function   	        Calls       Base Space   Used Autos Params    Refs
;; ---------------------------------------------------------------------------------
;; (0) _main                                                17    17      0    2022
;;                                             30 BANK0     17    17      0
;;                            _initial
;;                           ___awtoft
;;                            ___ftmul
;;                            ___fttol
;;                            ___awdiv
;;                            ___awmod
;;                            _command
;;                               _data
;; ---------------------------------------------------------------------------------
;; (1) _initial                                              0     0      0      22
;;                            _command
;; ---------------------------------------------------------------------------------
;; (1) ___awtoft                                             6     3      3     300
;;                                             12 COMMON     2     2      0
;;                                             10 BANK0      4     1      3
;;                           ___ftpack
;;                            ___fttol (ARG)
;; ---------------------------------------------------------------------------------
;; (1) ___ftmul                                             16    10      6     535
;;                                             14 BANK0     16    10      6
;;                           ___ftpack
;;                           ___awtoft (ARG)
;;                            ___fttol (ARG)
;; ---------------------------------------------------------------------------------
;; (1) _data                                                 2     2      0      22
;;                                              0 COMMON     2     2      0
;; ---------------------------------------------------------------------------------
;; (1) _command                                              2     2      0      22
;;                                              0 COMMON     2     2      0
;; ---------------------------------------------------------------------------------
;; (1) ___awmod                                              7     3      4     296
;;                                              0 COMMON     7     3      4
;; ---------------------------------------------------------------------------------
;; (1) ___awdiv                                              9     5      4     300
;;                                              0 COMMON     9     5      4
;; ---------------------------------------------------------------------------------
;; (1) ___fttol                                             14    10      4     252
;;                                              8 COMMON     4     0      4
;;                                              0 BANK0     10    10      0
;;                           ___ftpack (ARG)
;; ---------------------------------------------------------------------------------
;; (2) ___ftpack                                             8     3      5     209
;;                                              0 COMMON     8     3      5
;; ---------------------------------------------------------------------------------
;; Estimated maximum stack depth 2
;; ---------------------------------------------------------------------------------

;; Call Graph Graphs:

;; _main (ROOT)
;;   _initial
;;     _command
;;   ___awtoft
;;     ___ftpack
;;     ___fttol (ARG)
;;       ___ftpack (ARG)
;;   ___ftmul
;;     ___ftpack
;;     ___awtoft (ARG)
;;       ___ftpack
;;       ___fttol (ARG)
;;         ___ftpack (ARG)
;;     ___fttol (ARG)
;;       ___ftpack (ARG)
;;   ___fttol
;;     ___ftpack (ARG)
;;   ___awdiv
;;   ___awmod
;;   _command
;;   _data
;;

;; Address spaces:

;;Name               Size   Autos  Total    Cost      Usage
;;BITCOMMON            E      0       0       0        0.0%
;;EEDATA             100      0       0       0        0.0%
;;NULL                 0      0       0       0        0.0%
;;CODE                 0      0       0       0        0.0%
;;COMMON               E      E       E       1      100.0%
;;BITSFR0              0      0       0       1        0.0%
;;SFR0                 0      0       0       1        0.0%
;;BITSFR1              0      0       0       2        0.0%
;;SFR1                 0      0       0       2        0.0%
;;STACK                0      0       2       2        0.0%
;;ABS                  0      0       0       3        0.0%
;;BITBANK0            50      0       0       4        0.0%
;;BITSFR3              0      0       0       4        0.0%
;;SFR3                 0      0       0       4        0.0%
;;BANK0               50     2F      2F       5       58.8%
;;BITSFR2              0      0       0       5        0.0%
;;SFR2                 0      0       0       5        0.0%
;;BITBANK1            50      0       0       6        0.0%
;;BANK1               50      0       0       7        0.0%
;;BITBANK3            60      0       0       8        0.0%
;;BANK3               60      0       0       9        0.0%
;;BITBANK2            60      0       0      10        0.0%
;;BANK2               60      0       0      11        0.0%
;;DATA                 0      0       0      12        0.0%

	global	_main
psect	maintext,global,class=CODE,delta=2
global __pmaintext
__pmaintext:

;; *************** function _main *****************
;; Defined at:
;;		line 33 in file "C:\Users\sreya\Desktop\embeded\ADC\ADC.c"
;; Parameters:    Size  Location     Type
;;		None
;; Auto vars:     Size  Location     Type
;;  temp            2   45[BANK0 ] int 
;;  d               2   43[BANK0 ] int 
;;  b               2   41[BANK0 ] int 
;;  g               2   39[BANK0 ] int 
;;  f               2   37[BANK0 ] int 
;;  e               2   35[BANK0 ] int 
;;  c               2   33[BANK0 ] int 
;; Return value:  Size  Location     Type
;;		None               void
;; Registers used:
;;		wreg, status,2, status,0, btemp+0, pclath, cstack
;; Tracked objects:
;;		On entry : 17F/0
;;		On exit  : 0/0
;;		Unchanged: 0/0
;; Data sizes:     COMMON   BANK0   BANK1   BANK3   BANK2
;;      Params:         0       0       0       0       0
;;      Locals:         0      14       0       0       0
;;      Temps:          0       3       0       0       0
;;      Totals:         0      17       0       0       0
;;Total ram usage:       17 bytes
;; Hardware stack levels required when called:    2
;; This function calls:
;;		_initial
;;		___awtoft
;;		___ftmul
;;		___fttol
;;		___awdiv
;;		___awmod
;;		_command
;;		_data
;; This function is called by:
;;		Startup code after reset
;; This function uses a non-reentrant model
;;
psect	maintext
	file	"C:\Users\sreya\Desktop\embeded\ADC\ADC.c"
	line	33
	global	__size_of_main
	__size_of_main	equ	__end_of_main-_main
	
_main:	
	opt	stack 8
; Regs used in _main: [wreg+status,2-btemp+0+pclath+cstack]
	line	34
	
l2352:	
;ADC.c: 34: ADCON0=0x01;
	movlw	(01h)
	bcf	status, 5	;RP0=0, select bank0
	bcf	status, 6	;RP1=0, select bank0
	movwf	(31)	;volatile
	line	35
;ADC.c: 35: ADCON1=0xC0;
	movlw	(0C0h)
	bsf	status, 5	;RP0=1, select bank1
	bcf	status, 6	;RP1=0, select bank1
	movwf	(159)^080h	;volatile
	line	36
	
l2354:	
;ADC.c: 36: TRISC=0x00;
	clrf	(135)^080h	;volatile
	line	37
	
l2356:	
;ADC.c: 37: TRISD=0x00;
	clrf	(136)^080h	;volatile
	line	38
	
l2358:	
;ADC.c: 38: initial();
	fcall	_initial
	line	40
;ADC.c: 39: int temp,b,c,d,e,f,g;
;ADC.c: 40: while(1)
	
l570:	
	line	42
	
l2360:	
;ADC.c: 41: {
;ADC.c: 42: CHS2=0;CHS1=0;CHS0=0;
	bcf	status, 5	;RP0=0, select bank0
	bcf	status, 6	;RP1=0, select bank0
	bcf	(253/8),(253)&7
	
l2362:	
	bcf	(252/8),(252)&7
	
l2364:	
	bcf	(251/8),(251)&7
	line	43
	
l2366:	
;ADC.c: 43: _delay((unsigned long)((500)*(4000000/4000.0)));
	opt asmopt_off
movlw  3
movwf	((??_main+0)+0+2),f
movlw	136
movwf	((??_main+0)+0+1),f
	movlw	86
movwf	((??_main+0)+0),f
u3107:
	decfsz	((??_main+0)+0),f
	goto	u3107
	decfsz	((??_main+0)+0+1),f
	goto	u3107
	decfsz	((??_main+0)+0+2),f
	goto	u3107
opt asmopt_on

	line	44
	
l2368:	
;ADC.c: 44: ADCON0=ADCON0|0x04;
	bcf	status, 5	;RP0=0, select bank0
	bcf	status, 6	;RP1=0, select bank0
	movf	(31),w	;volatile
	iorlw	04h
	movwf	(31)	;volatile
	line	45
	
l2370:	
;ADC.c: 45: _delay((unsigned long)((500)*(4000000/4000.0)));
	opt asmopt_off
movlw  3
movwf	((??_main+0)+0+2),f
movlw	136
movwf	((??_main+0)+0+1),f
	movlw	86
movwf	((??_main+0)+0),f
u3117:
	decfsz	((??_main+0)+0),f
	goto	u3117
	decfsz	((??_main+0)+0+1),f
	goto	u3117
	decfsz	((??_main+0)+0+2),f
	goto	u3117
opt asmopt_on

	line	46
	
l2372:	
;ADC.c: 46: temp=ADRESH<<8;
	bcf	status, 5	;RP0=0, select bank0
	bcf	status, 6	;RP1=0, select bank0
	movf	(30),w	;volatile
	movwf	(??_main+0)+0
	clrf	(??_main+0)+0+1
	movlw	08h
	movwf	btemp+0
u3095:
	clrc
	rlf	(??_main+0)+0,f
	rlf	(??_main+0)+1,f
	decfsz	btemp+0,f
	goto	u3095
	movf	0+(??_main+0)+0,w
	movwf	(main@temp)
	movf	1+(??_main+0)+0,w
	movwf	(main@temp+1)
	line	47
	
l2374:	
;ADC.c: 47: temp=temp+ADRESL;
	bsf	status, 5	;RP0=1, select bank1
	bcf	status, 6	;RP1=0, select bank1
	movf	(158)^080h,w	;volatile
	bcf	status, 5	;RP0=0, select bank0
	bcf	status, 6	;RP1=0, select bank0
	addwf	(main@temp),w
	movwf	(main@temp)
	movf	(main@temp+1),w
	skipnc
	incf	(main@temp+1),w
	movwf	((main@temp))+1
	line	48
	
l2376:	
;ADC.c: 48: temp=temp*.48;
	movf	(main@temp+1),w
	clrf	(?___awtoft+1)
	addwf	(?___awtoft+1)
	movf	(main@temp),w
	clrf	(?___awtoft)
	addwf	(?___awtoft)

	fcall	___awtoft
	bcf	status, 5	;RP0=0, select bank0
	bcf	status, 6	;RP1=0, select bank0
	movf	(0+(?___awtoft)),w
	movwf	0+(?___ftmul)+03h
	movf	(1+(?___awtoft)),w
	movwf	1+(?___ftmul)+03h
	movf	(2+(?___awtoft)),w
	movwf	2+(?___ftmul)+03h
	movlw	0xc3
	movwf	(?___ftmul)
	movlw	0xf5
	movwf	(?___ftmul+1)
	movlw	0x3e
	movwf	(?___ftmul+2)
	fcall	___ftmul
	bcf	status, 5	;RP0=0, select bank0
	bcf	status, 6	;RP1=0, select bank0
	movf	(0+(?___ftmul)),w
	movwf	(?___fttol)
	movf	(1+(?___ftmul)),w
	movwf	(?___fttol+1)
	movf	(2+(?___ftmul)),w
	movwf	(?___fttol+2)
	fcall	___fttol
	movf	1+(((0+(?___fttol)))),w
	bcf	status, 5	;RP0=0, select bank0
	bcf	status, 6	;RP1=0, select bank0
	clrf	(main@temp+1)
	addwf	(main@temp+1)
	movf	0+(((0+(?___fttol)))),w
	clrf	(main@temp)
	addwf	(main@temp)

	line	49
	
l2378:	
;ADC.c: 49: b=temp/10;
	movlw	low(0Ah)
	movwf	(?___awdiv)
	movlw	high(0Ah)
	movwf	((?___awdiv))+1
	movf	(main@temp+1),w
	clrf	1+(?___awdiv)+02h
	addwf	1+(?___awdiv)+02h
	movf	(main@temp),w
	clrf	0+(?___awdiv)+02h
	addwf	0+(?___awdiv)+02h

	fcall	___awdiv
	movf	(1+(?___awdiv)),w
	bcf	status, 5	;RP0=0, select bank0
	bcf	status, 6	;RP1=0, select bank0
	clrf	(main@b+1)
	addwf	(main@b+1)
	movf	(0+(?___awdiv)),w
	clrf	(main@b)
	addwf	(main@b)

	line	50
	
l2380:	
;ADC.c: 50: c=temp%10;
	movlw	low(0Ah)
	movwf	(?___awmod)
	movlw	high(0Ah)
	movwf	((?___awmod))+1
	movf	(main@temp+1),w
	clrf	1+(?___awmod)+02h
	addwf	1+(?___awmod)+02h
	movf	(main@temp),w
	clrf	0+(?___awmod)+02h
	addwf	0+(?___awmod)+02h

	fcall	___awmod
	movf	(1+(?___awmod)),w
	bcf	status, 5	;RP0=0, select bank0
	bcf	status, 6	;RP1=0, select bank0
	clrf	(main@c+1)
	addwf	(main@c+1)
	movf	(0+(?___awmod)),w
	clrf	(main@c)
	addwf	(main@c)

	line	51
	
l2382:	
;ADC.c: 51: d=b/10;
	movlw	low(0Ah)
	movwf	(?___awdiv)
	movlw	high(0Ah)
	movwf	((?___awdiv))+1
	movf	(main@b+1),w
	clrf	1+(?___awdiv)+02h
	addwf	1+(?___awdiv)+02h
	movf	(main@b),w
	clrf	0+(?___awdiv)+02h
	addwf	0+(?___awdiv)+02h

	fcall	___awdiv
	movf	(1+(?___awdiv)),w
	bcf	status, 5	;RP0=0, select bank0
	bcf	status, 6	;RP1=0, select bank0
	clrf	(main@d+1)
	addwf	(main@d+1)
	movf	(0+(?___awdiv)),w
	clrf	(main@d)
	addwf	(main@d)

	line	52
	
l2384:	
;ADC.c: 52: e=b%10;
	movlw	low(0Ah)
	movwf	(?___awmod)
	movlw	high(0Ah)
	movwf	((?___awmod))+1
	movf	(main@b+1),w
	clrf	1+(?___awmod)+02h
	addwf	1+(?___awmod)+02h
	movf	(main@b),w
	clrf	0+(?___awmod)+02h
	addwf	0+(?___awmod)+02h

	fcall	___awmod
	movf	(1+(?___awmod)),w
	bcf	status, 5	;RP0=0, select bank0
	bcf	status, 6	;RP1=0, select bank0
	clrf	(main@e+1)
	addwf	(main@e+1)
	movf	(0+(?___awmod)),w
	clrf	(main@e)
	addwf	(main@e)

	line	53
	
l2386:	
;ADC.c: 53: f=d/10;
	movlw	low(0Ah)
	movwf	(?___awdiv)
	movlw	high(0Ah)
	movwf	((?___awdiv))+1
	movf	(main@d+1),w
	clrf	1+(?___awdiv)+02h
	addwf	1+(?___awdiv)+02h
	movf	(main@d),w
	clrf	0+(?___awdiv)+02h
	addwf	0+(?___awdiv)+02h

	fcall	___awdiv
	movf	(1+(?___awdiv)),w
	bcf	status, 5	;RP0=0, select bank0
	bcf	status, 6	;RP1=0, select bank0
	clrf	(main@f+1)
	addwf	(main@f+1)
	movf	(0+(?___awdiv)),w
	clrf	(main@f)
	addwf	(main@f)

	line	54
	
l2388:	
;ADC.c: 54: g=d%10;
	movlw	low(0Ah)
	movwf	(?___awmod)
	movlw	high(0Ah)
	movwf	((?___awmod))+1
	movf	(main@d+1),w
	clrf	1+(?___awmod)+02h
	addwf	1+(?___awmod)+02h
	movf	(main@d),w
	clrf	0+(?___awmod)+02h
	addwf	0+(?___awmod)+02h

	fcall	___awmod
	movf	(1+(?___awmod)),w
	bcf	status, 5	;RP0=0, select bank0
	bcf	status, 6	;RP1=0, select bank0
	clrf	(main@g+1)
	addwf	(main@g+1)
	movf	(0+(?___awmod)),w
	clrf	(main@g)
	addwf	(main@g)

	line	55
	
l2390:	
;ADC.c: 55: command(0x80);
	movlw	(080h)
	fcall	_command
	line	56
	
l2392:	
;ADC.c: 56: data(f+0x30);
	bcf	status, 5	;RP0=0, select bank0
	bcf	status, 6	;RP1=0, select bank0
	movf	(main@f),w
	addlw	030h
	fcall	_data
	line	57
	
l2394:	
;ADC.c: 57: data(g+0x30);
	bcf	status, 5	;RP0=0, select bank0
	bcf	status, 6	;RP1=0, select bank0
	movf	(main@g),w
	addlw	030h
	fcall	_data
	line	58
	
l2396:	
;ADC.c: 58: data(e+0x30);
	bcf	status, 5	;RP0=0, select bank0
	bcf	status, 6	;RP1=0, select bank0
	movf	(main@e),w
	addlw	030h
	fcall	_data
	line	59
	
l2398:	
;ADC.c: 59: data(c+0x30);
	bcf	status, 5	;RP0=0, select bank0
	bcf	status, 6	;RP1=0, select bank0
	movf	(main@c),w
	addlw	030h
	fcall	_data
	line	60
	
l2400:	
;ADC.c: 60: _delay((unsigned long)((100)*(4000000/4000.0)));
	opt asmopt_off
movlw	130
	bcf	status, 5	;RP0=0, select bank0
	bcf	status, 6	;RP1=0, select bank0
movwf	((??_main+0)+0+1),f
	movlw	221
movwf	((??_main+0)+0),f
u3127:
	decfsz	((??_main+0)+0),f
	goto	u3127
	decfsz	((??_main+0)+0+1),f
	goto	u3127
	nop2
opt asmopt_on

	line	61
	
l571:	
	line	40
	goto	l570
	
l572:	
	line	62
	
l573:	
	global	start
	ljmp	start
	opt stack 0
GLOBAL	__end_of_main
	__end_of_main:
;; =============== function _main ends ============

	signat	_main,88
	global	_initial
psect	text227,local,class=CODE,delta=2
global __ptext227
__ptext227:

;; *************** function _initial *****************
;; Defined at:
;;		line 26 in file "C:\Users\sreya\Desktop\embeded\ADC\ADC.c"
;; Parameters:    Size  Location     Type
;;		None
;; Auto vars:     Size  Location     Type
;;		None
;; Return value:  Size  Location     Type
;;		None               void
;; Registers used:
;;		wreg, status,2, status,0, pclath, cstack
;; Tracked objects:
;;		On entry : 0/0
;;		On exit  : 0/0
;;		Unchanged: 0/0
;; Data sizes:     COMMON   BANK0   BANK1   BANK3   BANK2
;;      Params:         0       0       0       0       0
;;      Locals:         0       0       0       0       0
;;      Temps:          0       0       0       0       0
;;      Totals:         0       0       0       0       0
;;Total ram usage:        0 bytes
;; Hardware stack levels used:    1
;; Hardware stack levels required when called:    1
;; This function calls:
;;		_command
;; This function is called by:
;;		_main
;; This function uses a non-reentrant model
;;
psect	text227
	file	"C:\Users\sreya\Desktop\embeded\ADC\ADC.c"
	line	26
	global	__size_of_initial
	__size_of_initial	equ	__end_of_initial-_initial
	
_initial:	
	opt	stack 7
; Regs used in _initial: [wreg+status,2+status,0+pclath+cstack]
	line	27
	
l2350:	
;ADC.c: 27: command(0x38);
	movlw	(038h)
	fcall	_command
	line	28
;ADC.c: 28: command(0x01);
	movlw	(01h)
	fcall	_command
	line	29
;ADC.c: 29: command(0x06);
	movlw	(06h)
	fcall	_command
	line	30
;ADC.c: 30: command(0x0C);
	movlw	(0Ch)
	fcall	_command
	line	31
	
l567:	
	return
	opt stack 0
GLOBAL	__end_of_initial
	__end_of_initial:
;; =============== function _initial ends ============

	signat	_initial,88
	global	___awtoft
psect	text228,local,class=CODE,delta=2
global __ptext228
__ptext228:

;; *************** function ___awtoft *****************
;; Defined at:
;;		line 33 in file "C:\Program Files (x86)\HI-TECH Software\PICC\9.71a\sources\awtoft.c"
;; Parameters:    Size  Location     Type
;;  c               2   10[BANK0 ] int 
;; Auto vars:     Size  Location     Type
;;  sign            1   13[BANK0 ] unsigned char 
;; Return value:  Size  Location     Type
;;                  3   10[BANK0 ] float 
;; Registers used:
;;		wreg, status,2, status,0, pclath, cstack
;; Tracked objects:
;;		On entry : 0/0
;;		On exit  : 0/0
;;		Unchanged: 0/0
;; Data sizes:     COMMON   BANK0   BANK1   BANK3   BANK2
;;      Params:         0       3       0       0       0
;;      Locals:         0       1       0       0       0
;;      Temps:          2       0       0       0       0
;;      Totals:         2       4       0       0       0
;;Total ram usage:        6 bytes
;; Hardware stack levels used:    1
;; Hardware stack levels required when called:    1
;; This function calls:
;;		___ftpack
;; This function is called by:
;;		_main
;; This function uses a non-reentrant model
;;
psect	text228
	file	"C:\Program Files (x86)\HI-TECH Software\PICC\9.71a\sources\awtoft.c"
	line	33
	global	__size_of___awtoft
	__size_of___awtoft	equ	__end_of___awtoft-___awtoft
	
___awtoft:	
	opt	stack 7
; Regs used in ___awtoft: [wreg+status,2+status,0+pclath+cstack]
	line	36
	
l2340:	
	clrc
	movlw	0
	btfsc	status,0
	movlw	1
	bcf	status, 5	;RP0=0, select bank0
	bcf	status, 6	;RP1=0, select bank0
	movwf	(___awtoft@sign)
	line	37
	
l2342:	
	btfss	(___awtoft@c+1),7
	goto	u3081
	goto	u3080
u3081:
	goto	l718
u3080:
	line	38
	
l2344:	
	comf	(___awtoft@c),f
	comf	(___awtoft@c+1),f
	incf	(___awtoft@c),f
	skipnz
	incf	(___awtoft@c+1),f
	line	39
	clrf	(___awtoft@sign)
	bsf	status,0
	rlf	(___awtoft@sign),f
	line	40
	
l718:	
	line	41
	
l2346:	
	movf	(___awtoft@c),w
	movwf	(?___ftpack)
	movf	(___awtoft@c+1),w
	movwf	(?___ftpack+1)
	clrf	(?___ftpack+2)
	movlw	(08Eh)
	movwf	(??___awtoft+0)+0
	movf	(??___awtoft+0)+0,w
	movwf	0+(?___ftpack)+03h
	movf	(___awtoft@sign),w
	movwf	(??___awtoft+1)+0
	movf	(??___awtoft+1)+0,w
	movwf	0+(?___ftpack)+04h
	fcall	___ftpack
	movf	(0+(?___ftpack)),w
	bcf	status, 5	;RP0=0, select bank0
	bcf	status, 6	;RP1=0, select bank0
	movwf	(?___awtoft)
	movf	(1+(?___ftpack)),w
	movwf	(?___awtoft+1)
	movf	(2+(?___ftpack)),w
	movwf	(?___awtoft+2)
	
l2348:	
	line	42
	
l719:	
	return
	opt stack 0
GLOBAL	__end_of___awtoft
	__end_of___awtoft:
;; =============== function ___awtoft ends ============

	signat	___awtoft,4219
	global	___ftmul
psect	text229,local,class=CODE,delta=2
global __ptext229
__ptext229:

;; *************** function ___ftmul *****************
;; Defined at:
;;		line 52 in file "C:\Program Files (x86)\HI-TECH Software\PICC\9.71a\sources\ftmul.c"
;; Parameters:    Size  Location     Type
;;  f1              3   14[BANK0 ] float 
;;  f2              3   17[BANK0 ] float 
;; Auto vars:     Size  Location     Type
;;  f3_as_produc    3   25[BANK0 ] unsigned um
;;  sign            1   29[BANK0 ] unsigned char 
;;  cntr            1   28[BANK0 ] unsigned char 
;;  exp             1   24[BANK0 ] unsigned char 
;; Return value:  Size  Location     Type
;;                  3   14[BANK0 ] float 
;; Registers used:
;;		wreg, status,2, status,0, pclath, cstack
;; Tracked objects:
;;		On entry : 0/0
;;		On exit  : 0/0
;;		Unchanged: 0/0
;; Data sizes:     COMMON   BANK0   BANK1   BANK3   BANK2
;;      Params:         0       6       0       0       0
;;      Locals:         0       6       0       0       0
;;      Temps:          0       4       0       0       0
;;      Totals:         0      16       0       0       0
;;Total ram usage:       16 bytes
;; Hardware stack levels used:    1
;; Hardware stack levels required when called:    1
;; This function calls:
;;		___ftpack
;; This function is called by:
;;		_main
;; This function uses a non-reentrant model
;;
psect	text229
	file	"C:\Program Files (x86)\HI-TECH Software\PICC\9.71a\sources\ftmul.c"
	line	52
	global	__size_of___ftmul
	__size_of___ftmul	equ	__end_of___ftmul-___ftmul
	
___ftmul:	
	opt	stack 7
; Regs used in ___ftmul: [wreg+status,2+status,0+pclath+cstack]
	line	56
	
l2290:	
	bcf	status, 5	;RP0=0, select bank0
	bcf	status, 6	;RP1=0, select bank0
	movf	(___ftmul@f1),w
	movwf	((??___ftmul+0)+0)
	movf	(___ftmul@f1+1),w
	movwf	((??___ftmul+0)+0+1)
	movf	(___ftmul@f1+2),w
	movwf	((??___ftmul+0)+0+2)
	clrc
	rlf	(??___ftmul+0)+1,w
	rlf	(??___ftmul+0)+2,w
	movwf	(??___ftmul+3)+0
	movf	(??___ftmul+3)+0,w
	movwf	(___ftmul@exp)
	movf	((___ftmul@exp)),f
	skipz
	goto	u2941
	goto	u2940
u2941:
	goto	l680
u2940:
	line	57
	
l2292:	
	movlw	0x0
	movwf	(?___ftmul)
	movlw	0x0
	movwf	(?___ftmul+1)
	movlw	0x0
	movwf	(?___ftmul+2)
	
l2294:	
	goto	l681
	
l680:	
	line	58
	
l2296:	
	movf	(___ftmul@f2),w
	movwf	((??___ftmul+0)+0)
	movf	(___ftmul@f2+1),w
	movwf	((??___ftmul+0)+0+1)
	movf	(___ftmul@f2+2),w
	movwf	((??___ftmul+0)+0+2)
	clrc
	rlf	(??___ftmul+0)+1,w
	rlf	(??___ftmul+0)+2,w
	movwf	(??___ftmul+3)+0
	movf	(??___ftmul+3)+0,w
	movwf	(___ftmul@sign)
	movf	((___ftmul@sign)),f
	skipz
	goto	u2951
	goto	u2950
u2951:
	goto	l682
u2950:
	line	59
	
l2298:	
	movlw	0x0
	movwf	(?___ftmul)
	movlw	0x0
	movwf	(?___ftmul+1)
	movlw	0x0
	movwf	(?___ftmul+2)
	
l2300:	
	goto	l681
	
l682:	
	line	60
	
l2302:	
	movf	(___ftmul@sign),w
	addlw	07Bh
	movwf	(??___ftmul+0)+0
	movf	(??___ftmul+0)+0,w
	addwf	(___ftmul@exp),f
	line	61
	movf	(___ftmul@f1),w
	movwf	((??___ftmul+0)+0)
	movf	(___ftmul@f1+1),w
	movwf	((??___ftmul+0)+0+1)
	movf	(___ftmul@f1+2),w
	movwf	((??___ftmul+0)+0+2)
	movlw	010h
u2965:
	clrc
	rrf	(??___ftmul+0)+2,f
	rrf	(??___ftmul+0)+1,f
	rrf	(??___ftmul+0)+0,f
u2960:
	addlw	-1
	skipz
	goto	u2965
	movf	0+(??___ftmul+0)+0,w
	movwf	(??___ftmul+3)+0
	movf	(??___ftmul+3)+0,w
	movwf	(___ftmul@sign)
	line	62
	movf	(___ftmul@f2),w
	movwf	((??___ftmul+0)+0)
	movf	(___ftmul@f2+1),w
	movwf	((??___ftmul+0)+0+1)
	movf	(___ftmul@f2+2),w
	movwf	((??___ftmul+0)+0+2)
	movlw	010h
u2975:
	clrc
	rrf	(??___ftmul+0)+2,f
	rrf	(??___ftmul+0)+1,f
	rrf	(??___ftmul+0)+0,f
u2970:
	addlw	-1
	skipz
	goto	u2975
	movf	0+(??___ftmul+0)+0,w
	movwf	(??___ftmul+3)+0
	movf	(??___ftmul+3)+0,w
	xorwf	(___ftmul@sign),f
	line	63
	movlw	(080h)
	movwf	(??___ftmul+0)+0
	movf	(??___ftmul+0)+0,w
	andwf	(___ftmul@sign),f
	line	64
	
l2304:	
	bsf	(___ftmul@f1)+(15/8),(15)&7
	line	66
	
l2306:	
	bsf	(___ftmul@f2)+(15/8),(15)&7
	line	67
	
l2308:	
	movlw	0FFh
	andwf	(___ftmul@f2),f
	movlw	0FFh
	andwf	(___ftmul@f2+1),f
	movlw	0
	andwf	(___ftmul@f2+2),f
	line	68
	
l2310:	
	movlw	0
	movwf	(___ftmul@f3_as_product)
	movlw	0
	movwf	(___ftmul@f3_as_product+1)
	movlw	0
	movwf	(___ftmul@f3_as_product+2)
	line	69
	
l2312:	
	movlw	(07h)
	movwf	(??___ftmul+0)+0
	movf	(??___ftmul+0)+0,w
	movwf	(___ftmul@cntr)
	line	70
	
l683:	
	line	71
	
l2314:	
	btfss	(___ftmul@f1),(0)&7
	goto	u2981
	goto	u2980
u2981:
	goto	l684
u2980:
	line	72
	
l2316:	
	movf	(___ftmul@f2),w
	addwf	(___ftmul@f3_as_product),f
	movf	(___ftmul@f2+1),w
	clrz
	skipnc
	incf	(___ftmul@f2+1),w
	skipnz
	goto	u2991
	addwf	(___ftmul@f3_as_product+1),f
u2991:
	movf	(___ftmul@f2+2),w
	clrz
	skipnc
	incf	(___ftmul@f2+2),w
	skipnz
	goto	u2992
	addwf	(___ftmul@f3_as_product+2),f
u2992:

	
l684:	
	line	73
	
l2318:	
	movlw	01h
u3005:
	clrc
	rrf	(___ftmul@f1+2),f
	rrf	(___ftmul@f1+1),f
	rrf	(___ftmul@f1),f
	addlw	-1
	skipz
	goto	u3005

	line	74
	
l2320:	
	movlw	01h
u3015:
	clrc
	rlf	(___ftmul@f2),f
	rlf	(___ftmul@f2+1),f
	rlf	(___ftmul@f2+2),f
	addlw	-1
	skipz
	goto	u3015
	line	75
	
l2322:	
	movlw	low(01h)
	subwf	(___ftmul@cntr),f
	btfss	status,2
	goto	u3021
	goto	u3020
u3021:
	goto	l683
u3020:
	
l685:	
	line	76
	
l2324:	
	movlw	(09h)
	movwf	(??___ftmul+0)+0
	movf	(??___ftmul+0)+0,w
	movwf	(___ftmul@cntr)
	line	77
	
l686:	
	line	78
	
l2326:	
	btfss	(___ftmul@f1),(0)&7
	goto	u3031
	goto	u3030
u3031:
	goto	l687
u3030:
	line	79
	
l2328:	
	movf	(___ftmul@f2),w
	addwf	(___ftmul@f3_as_product),f
	movf	(___ftmul@f2+1),w
	clrz
	skipnc
	incf	(___ftmul@f2+1),w
	skipnz
	goto	u3041
	addwf	(___ftmul@f3_as_product+1),f
u3041:
	movf	(___ftmul@f2+2),w
	clrz
	skipnc
	incf	(___ftmul@f2+2),w
	skipnz
	goto	u3042
	addwf	(___ftmul@f3_as_product+2),f
u3042:

	
l687:	
	line	80
	
l2330:	
	movlw	01h
u3055:
	clrc
	rrf	(___ftmul@f1+2),f
	rrf	(___ftmul@f1+1),f
	rrf	(___ftmul@f1),f
	addlw	-1
	skipz
	goto	u3055

	line	81
	
l2332:	
	movlw	01h
u3065:
	clrc
	rrf	(___ftmul@f3_as_product+2),f
	rrf	(___ftmul@f3_as_product+1),f
	rrf	(___ftmul@f3_as_product),f
	addlw	-1
	skipz
	goto	u3065

	line	82
	
l2334:	
	movlw	low(01h)
	subwf	(___ftmul@cntr),f
	btfss	status,2
	goto	u3071
	goto	u3070
u3071:
	goto	l686
u3070:
	
l688:	
	line	83
	
l2336:	
	movf	(___ftmul@f3_as_product),w
	movwf	(?___ftpack)
	movf	(___ftmul@f3_as_product+1),w
	movwf	(?___ftpack+1)
	movf	(___ftmul@f3_as_product+2),w
	movwf	(?___ftpack+2)
	movf	(___ftmul@exp),w
	movwf	(??___ftmul+0)+0
	movf	(??___ftmul+0)+0,w
	movwf	0+(?___ftpack)+03h
	movf	(___ftmul@sign),w
	movwf	(??___ftmul+1)+0
	movf	(??___ftmul+1)+0,w
	movwf	0+(?___ftpack)+04h
	fcall	___ftpack
	movf	(0+(?___ftpack)),w
	bcf	status, 5	;RP0=0, select bank0
	bcf	status, 6	;RP1=0, select bank0
	movwf	(?___ftmul)
	movf	(1+(?___ftpack)),w
	movwf	(?___ftmul+1)
	movf	(2+(?___ftpack)),w
	movwf	(?___ftmul+2)
	
l2338:	
	line	84
	
l681:	
	return
	opt stack 0
GLOBAL	__end_of___ftmul
	__end_of___ftmul:
;; =============== function ___ftmul ends ============

	signat	___ftmul,8315
	global	_data
psect	text230,local,class=CODE,delta=2
global __ptext230
__ptext230:

;; *************** function _data *****************
;; Defined at:
;;		line 17 in file "C:\Users\sreya\Desktop\embeded\ADC\ADC.c"
;; Parameters:    Size  Location     Type
;;  z               1    wreg     unsigned char 
;; Auto vars:     Size  Location     Type
;;  z               1    1[COMMON] unsigned char 
;; Return value:  Size  Location     Type
;;		None               void
;; Registers used:
;;		wreg
;; Tracked objects:
;;		On entry : 0/0
;;		On exit  : 0/0
;;		Unchanged: 0/0
;; Data sizes:     COMMON   BANK0   BANK1   BANK3   BANK2
;;      Params:         0       0       0       0       0
;;      Locals:         1       0       0       0       0
;;      Temps:          1       0       0       0       0
;;      Totals:         2       0       0       0       0
;;Total ram usage:        2 bytes
;; Hardware stack levels used:    1
;; This function calls:
;;		Nothing
;; This function is called by:
;;		_main
;; This function uses a non-reentrant model
;;
psect	text230
	file	"C:\Users\sreya\Desktop\embeded\ADC\ADC.c"
	line	17
	global	__size_of_data
	__size_of_data	equ	__end_of_data-_data
	
_data:	
	opt	stack 7
; Regs used in _data: [wreg]
;data@z stored from wreg
	movwf	(data@z)
	line	18
	
l2280:	
;ADC.c: 18: PORTD=z;
	movf	(data@z),w
	bcf	status, 5	;RP0=0, select bank0
	bcf	status, 6	;RP1=0, select bank0
	movwf	(8)	;volatile
	line	19
	
l2282:	
;ADC.c: 19: RC0=1;
	bsf	(56/8),(56)&7
	line	20
	
l2284:	
;ADC.c: 20: RC1=0;
	bcf	(57/8),(57)&7
	line	21
	
l2286:	
;ADC.c: 21: RC2=1;
	bsf	(58/8),(58)&7
	line	22
;ADC.c: 22: _delay((unsigned long)((1)*(4000000/4000.0)));
	opt asmopt_off
movlw	249
movwf	(??_data+0)+0,f
u3137:
	clrwdt
decfsz	(??_data+0)+0,f
	goto	u3137
	nop2	;nop
	clrwdt
opt asmopt_on

	line	23
	
l2288:	
;ADC.c: 23: RC2=0;
	bcf	status, 5	;RP0=0, select bank0
	bcf	status, 6	;RP1=0, select bank0
	bcf	(58/8),(58)&7
	line	24
	
l564:	
	return
	opt stack 0
GLOBAL	__end_of_data
	__end_of_data:
;; =============== function _data ends ============

	signat	_data,4216
	global	_command
psect	text231,local,class=CODE,delta=2
global __ptext231
__ptext231:

;; *************** function _command *****************
;; Defined at:
;;		line 8 in file "C:\Users\sreya\Desktop\embeded\ADC\ADC.c"
;; Parameters:    Size  Location     Type
;;  y               1    wreg     unsigned char 
;; Auto vars:     Size  Location     Type
;;  y               1    1[COMMON] unsigned char 
;; Return value:  Size  Location     Type
;;		None               void
;; Registers used:
;;		wreg
;; Tracked objects:
;;		On entry : 0/0
;;		On exit  : 0/0
;;		Unchanged: 0/0
;; Data sizes:     COMMON   BANK0   BANK1   BANK3   BANK2
;;      Params:         0       0       0       0       0
;;      Locals:         1       0       0       0       0
;;      Temps:          1       0       0       0       0
;;      Totals:         2       0       0       0       0
;;Total ram usage:        2 bytes
;; Hardware stack levels used:    1
;; This function calls:
;;		Nothing
;; This function is called by:
;;		_initial
;;		_main
;; This function uses a non-reentrant model
;;
psect	text231
	file	"C:\Users\sreya\Desktop\embeded\ADC\ADC.c"
	line	8
	global	__size_of_command
	__size_of_command	equ	__end_of_command-_command
	
_command:	
	opt	stack 7
; Regs used in _command: [wreg]
;command@y stored from wreg
	movwf	(command@y)
	line	9
	
l2270:	
;ADC.c: 9: PORTD=y;
	movf	(command@y),w
	bcf	status, 5	;RP0=0, select bank0
	bcf	status, 6	;RP1=0, select bank0
	movwf	(8)	;volatile
	line	10
	
l2272:	
;ADC.c: 10: RC0=0;
	bcf	(56/8),(56)&7
	line	11
	
l2274:	
;ADC.c: 11: RC1=0;
	bcf	(57/8),(57)&7
	line	12
	
l2276:	
;ADC.c: 12: RC2=1;
	bsf	(58/8),(58)&7
	line	13
;ADC.c: 13: _delay((unsigned long)((1)*(4000000/4000.0)));
	opt asmopt_off
movlw	249
movwf	(??_command+0)+0,f
u3147:
	clrwdt
decfsz	(??_command+0)+0,f
	goto	u3147
	nop2	;nop
	clrwdt
opt asmopt_on

	line	14
	
l2278:	
;ADC.c: 14: RC2=0;
	bcf	status, 5	;RP0=0, select bank0
	bcf	status, 6	;RP1=0, select bank0
	bcf	(58/8),(58)&7
	line	15
	
l561:	
	return
	opt stack 0
GLOBAL	__end_of_command
	__end_of_command:
;; =============== function _command ends ============

	signat	_command,4216
	global	___awmod
psect	text232,local,class=CODE,delta=2
global __ptext232
__ptext232:

;; *************** function ___awmod *****************
;; Defined at:
;;		line 5 in file "C:\Program Files (x86)\HI-TECH Software\PICC\9.71a\sources\awmod.c"
;; Parameters:    Size  Location     Type
;;  divisor         2    0[COMMON] int 
;;  dividend        2    2[COMMON] int 
;; Auto vars:     Size  Location     Type
;;  sign            1    6[COMMON] unsigned char 
;;  counter         1    5[COMMON] unsigned char 
;; Return value:  Size  Location     Type
;;                  2    0[COMMON] int 
;; Registers used:
;;		wreg, status,2, status,0
;; Tracked objects:
;;		On entry : 0/0
;;		On exit  : 0/0
;;		Unchanged: 0/0
;; Data sizes:     COMMON   BANK0   BANK1   BANK3   BANK2
;;      Params:         4       0       0       0       0
;;      Locals:         2       0       0       0       0
;;      Temps:          1       0       0       0       0
;;      Totals:         7       0       0       0       0
;;Total ram usage:        7 bytes
;; Hardware stack levels used:    1
;; This function calls:
;;		Nothing
;; This function is called by:
;;		_main
;; This function uses a non-reentrant model
;;
psect	text232
	file	"C:\Program Files (x86)\HI-TECH Software\PICC\9.71a\sources\awmod.c"
	line	5
	global	__size_of___awmod
	__size_of___awmod	equ	__end_of___awmod-___awmod
	
___awmod:	
	opt	stack 7
; Regs used in ___awmod: [wreg+status,2+status,0]
	line	8
	
l2186:	
	clrc
	movlw	0
	btfsc	status,0
	movlw	1
	movwf	(___awmod@sign)
	line	9
	
l2188:	
	btfss	(___awmod@dividend+1),7
	goto	u2791
	goto	u2790
u2791:
	goto	l790
u2790:
	line	10
	
l2190:	
	comf	(___awmod@dividend),f
	comf	(___awmod@dividend+1),f
	incf	(___awmod@dividend),f
	skipnz
	incf	(___awmod@dividend+1),f
	line	11
	clrf	(___awmod@sign)
	bsf	status,0
	rlf	(___awmod@sign),f
	line	12
	
l790:	
	line	13
	
l2192:	
	btfss	(___awmod@divisor+1),7
	goto	u2801
	goto	u2800
u2801:
	goto	l791
u2800:
	line	14
	
l2194:	
	comf	(___awmod@divisor),f
	comf	(___awmod@divisor+1),f
	incf	(___awmod@divisor),f
	skipnz
	incf	(___awmod@divisor+1),f
	
l791:	
	line	15
	
l2196:	
	movf	(___awmod@divisor+1),w
	iorwf	(___awmod@divisor),w
	skipnz
	goto	u2811
	goto	u2810
u2811:
	goto	l792
u2810:
	line	16
	
l2198:	
	clrf	(___awmod@counter)
	bsf	status,0
	rlf	(___awmod@counter),f
	line	17
	goto	l793
	
l794:	
	line	18
	
l2200:	
	movlw	01h
	
u2825:
	clrc
	rlf	(___awmod@divisor),f
	rlf	(___awmod@divisor+1),f
	addlw	-1
	skipz
	goto	u2825
	line	19
	
l2202:	
	movlw	(01h)
	movwf	(??___awmod+0)+0
	movf	(??___awmod+0)+0,w
	addwf	(___awmod@counter),f
	line	20
	
l793:	
	line	17
	
l2204:	
	btfss	(___awmod@divisor+1),(15)&7
	goto	u2831
	goto	u2830
u2831:
	goto	l794
u2830:
	
l795:	
	line	21
	
l796:	
	line	22
	
l2206:	
	movf	(___awmod@divisor+1),w
	subwf	(___awmod@dividend+1),w
	skipz
	goto	u2845
	movf	(___awmod@divisor),w
	subwf	(___awmod@dividend),w
u2845:
	skipc
	goto	u2841
	goto	u2840
u2841:
	goto	l797
u2840:
	line	23
	
l2208:	
	movf	(___awmod@divisor),w
	subwf	(___awmod@dividend),f
	movf	(___awmod@divisor+1),w
	skipc
	decf	(___awmod@dividend+1),f
	subwf	(___awmod@dividend+1),f
	
l797:	
	line	24
	
l2210:	
	movlw	01h
	
u2855:
	clrc
	rrf	(___awmod@divisor+1),f
	rrf	(___awmod@divisor),f
	addlw	-1
	skipz
	goto	u2855
	line	25
	
l2212:	
	movlw	low(01h)
	subwf	(___awmod@counter),f
	btfss	status,2
	goto	u2861
	goto	u2860
u2861:
	goto	l796
u2860:
	
l798:	
	line	26
	
l792:	
	line	27
	
l2214:	
	movf	(___awmod@sign),w
	skipz
	goto	u2870
	goto	l799
u2870:
	line	28
	
l2216:	
	comf	(___awmod@dividend),f
	comf	(___awmod@dividend+1),f
	incf	(___awmod@dividend),f
	skipnz
	incf	(___awmod@dividend+1),f
	
l799:	
	line	29
	
l2218:	
	movf	(___awmod@dividend+1),w
	clrf	(?___awmod+1)
	addwf	(?___awmod+1)
	movf	(___awmod@dividend),w
	clrf	(?___awmod)
	addwf	(?___awmod)

	
l2220:	
	line	30
	
l800:	
	return
	opt stack 0
GLOBAL	__end_of___awmod
	__end_of___awmod:
;; =============== function ___awmod ends ============

	signat	___awmod,8314
	global	___awdiv
psect	text233,local,class=CODE,delta=2
global __ptext233
__ptext233:

;; *************** function ___awdiv *****************
;; Defined at:
;;		line 5 in file "C:\Program Files (x86)\HI-TECH Software\PICC\9.71a\sources\awdiv.c"
;; Parameters:    Size  Location     Type
;;  divisor         2    0[COMMON] int 
;;  dividend        2    2[COMMON] int 
;; Auto vars:     Size  Location     Type
;;  quotient        2    7[COMMON] int 
;;  sign            1    6[COMMON] unsigned char 
;;  counter         1    5[COMMON] unsigned char 
;; Return value:  Size  Location     Type
;;                  2    0[COMMON] int 
;; Registers used:
;;		wreg, status,2, status,0
;; Tracked objects:
;;		On entry : 0/0
;;		On exit  : 0/0
;;		Unchanged: 0/0
;; Data sizes:     COMMON   BANK0   BANK1   BANK3   BANK2
;;      Params:         4       0       0       0       0
;;      Locals:         4       0       0       0       0
;;      Temps:          1       0       0       0       0
;;      Totals:         9       0       0       0       0
;;Total ram usage:        9 bytes
;; Hardware stack levels used:    1
;; This function calls:
;;		Nothing
;; This function is called by:
;;		_main
;; This function uses a non-reentrant model
;;
psect	text233
	file	"C:\Program Files (x86)\HI-TECH Software\PICC\9.71a\sources\awdiv.c"
	line	5
	global	__size_of___awdiv
	__size_of___awdiv	equ	__end_of___awdiv-___awdiv
	
___awdiv:	
	opt	stack 7
; Regs used in ___awdiv: [wreg+status,2+status,0]
	line	9
	
l2148:	
	clrc
	movlw	0
	btfsc	status,0
	movlw	1
	movwf	(___awdiv@sign)
	line	10
	
l2150:	
	btfss	(___awdiv@divisor+1),7
	goto	u2691
	goto	u2690
u2691:
	goto	l722
u2690:
	line	11
	
l2152:	
	comf	(___awdiv@divisor),f
	comf	(___awdiv@divisor+1),f
	incf	(___awdiv@divisor),f
	skipnz
	incf	(___awdiv@divisor+1),f
	line	12
	clrf	(___awdiv@sign)
	bsf	status,0
	rlf	(___awdiv@sign),f
	line	13
	
l722:	
	line	14
	
l2154:	
	btfss	(___awdiv@dividend+1),7
	goto	u2701
	goto	u2700
u2701:
	goto	l723
u2700:
	line	15
	
l2156:	
	comf	(___awdiv@dividend),f
	comf	(___awdiv@dividend+1),f
	incf	(___awdiv@dividend),f
	skipnz
	incf	(___awdiv@dividend+1),f
	line	16
	
l2158:	
	movlw	(01h)
	movwf	(??___awdiv+0)+0
	movf	(??___awdiv+0)+0,w
	xorwf	(___awdiv@sign),f
	line	17
	
l723:	
	line	18
	movlw	low(0)
	movwf	(___awdiv@quotient)
	movlw	high(0)
	movwf	((___awdiv@quotient))+1
	line	19
	movf	(___awdiv@divisor+1),w
	iorwf	(___awdiv@divisor),w
	skipnz
	goto	u2711
	goto	u2710
u2711:
	goto	l724
u2710:
	line	20
	
l2160:	
	clrf	(___awdiv@counter)
	bsf	status,0
	rlf	(___awdiv@counter),f
	line	21
	goto	l725
	
l726:	
	line	22
	
l2162:	
	movlw	01h
	
u2725:
	clrc
	rlf	(___awdiv@divisor),f
	rlf	(___awdiv@divisor+1),f
	addlw	-1
	skipz
	goto	u2725
	line	23
	
l2164:	
	movlw	(01h)
	movwf	(??___awdiv+0)+0
	movf	(??___awdiv+0)+0,w
	addwf	(___awdiv@counter),f
	line	24
	
l725:	
	line	21
	
l2166:	
	btfss	(___awdiv@divisor+1),(15)&7
	goto	u2731
	goto	u2730
u2731:
	goto	l726
u2730:
	
l727:	
	line	25
	
l728:	
	line	26
	
l2168:	
	movlw	01h
	
u2745:
	clrc
	rlf	(___awdiv@quotient),f
	rlf	(___awdiv@quotient+1),f
	addlw	-1
	skipz
	goto	u2745
	line	27
	movf	(___awdiv@divisor+1),w
	subwf	(___awdiv@dividend+1),w
	skipz
	goto	u2755
	movf	(___awdiv@divisor),w
	subwf	(___awdiv@dividend),w
u2755:
	skipc
	goto	u2751
	goto	u2750
u2751:
	goto	l729
u2750:
	line	28
	
l2170:	
	movf	(___awdiv@divisor),w
	subwf	(___awdiv@dividend),f
	movf	(___awdiv@divisor+1),w
	skipc
	decf	(___awdiv@dividend+1),f
	subwf	(___awdiv@dividend+1),f
	line	29
	
l2172:	
	bsf	(___awdiv@quotient)+(0/8),(0)&7
	line	30
	
l729:	
	line	31
	
l2174:	
	movlw	01h
	
u2765:
	clrc
	rrf	(___awdiv@divisor+1),f
	rrf	(___awdiv@divisor),f
	addlw	-1
	skipz
	goto	u2765
	line	32
	
l2176:	
	movlw	low(01h)
	subwf	(___awdiv@counter),f
	btfss	status,2
	goto	u2771
	goto	u2770
u2771:
	goto	l728
u2770:
	
l730:	
	line	33
	
l724:	
	line	34
	
l2178:	
	movf	(___awdiv@sign),w
	skipz
	goto	u2780
	goto	l731
u2780:
	line	35
	
l2180:	
	comf	(___awdiv@quotient),f
	comf	(___awdiv@quotient+1),f
	incf	(___awdiv@quotient),f
	skipnz
	incf	(___awdiv@quotient+1),f
	
l731:	
	line	36
	
l2182:	
	movf	(___awdiv@quotient+1),w
	clrf	(?___awdiv+1)
	addwf	(?___awdiv+1)
	movf	(___awdiv@quotient),w
	clrf	(?___awdiv)
	addwf	(?___awdiv)

	
l2184:	
	line	37
	
l732:	
	return
	opt stack 0
GLOBAL	__end_of___awdiv
	__end_of___awdiv:
;; =============== function ___awdiv ends ============

	signat	___awdiv,8314
	global	___fttol
psect	text234,local,class=CODE,delta=2
global __ptext234
__ptext234:

;; *************** function ___fttol *****************
;; Defined at:
;;		line 45 in file "C:\Program Files (x86)\HI-TECH Software\PICC\9.71a\sources\fttol.c"
;; Parameters:    Size  Location     Type
;;  f1              3    8[COMMON] float 
;; Auto vars:     Size  Location     Type
;;  lval            4    5[BANK0 ] unsigned long 
;;  exp1            1    9[BANK0 ] unsigned char 
;;  sign1           1    4[BANK0 ] unsigned char 
;; Return value:  Size  Location     Type
;;                  4    8[COMMON] long 
;; Registers used:
;;		wreg, status,2, status,0
;; Tracked objects:
;;		On entry : 0/0
;;		On exit  : 0/0
;;		Unchanged: 0/0
;; Data sizes:     COMMON   BANK0   BANK1   BANK3   BANK2
;;      Params:         4       0       0       0       0
;;      Locals:         0       6       0       0       0
;;      Temps:          0       4       0       0       0
;;      Totals:         4      10       0       0       0
;;Total ram usage:       14 bytes
;; Hardware stack levels used:    1
;; This function calls:
;;		Nothing
;; This function is called by:
;;		_main
;; This function uses a non-reentrant model
;;
psect	text234
	file	"C:\Program Files (x86)\HI-TECH Software\PICC\9.71a\sources\fttol.c"
	line	45
	global	__size_of___fttol
	__size_of___fttol	equ	__end_of___fttol-___fttol
	
___fttol:	
	opt	stack 7
; Regs used in ___fttol: [wreg+status,2+status,0]
	line	49
	
l2090:	
	movf	(___fttol@f1),w
	bcf	status, 5	;RP0=0, select bank0
	bcf	status, 6	;RP1=0, select bank0
	movwf	((??___fttol+0)+0)
	movf	(___fttol@f1+1),w
	movwf	((??___fttol+0)+0+1)
	movf	(___fttol@f1+2),w
	movwf	((??___fttol+0)+0+2)
	clrc
	rlf	(??___fttol+0)+1,w
	rlf	(??___fttol+0)+2,w
	movwf	(??___fttol+3)+0
	movf	(??___fttol+3)+0,w
	movwf	(___fttol@exp1)
	movf	((___fttol@exp1)),f
	skipz
	goto	u2581
	goto	u2580
u2581:
	goto	l691
u2580:
	line	50
	
l2092:	
	movlw	0
	movwf	(?___fttol+3)
	movlw	0
	movwf	(?___fttol+2)
	movlw	0
	movwf	(?___fttol+1)
	movlw	0
	movwf	(?___fttol)

	
l2094:	
	goto	l692
	
l691:	
	line	51
	
l2096:	
	movf	(___fttol@f1),w
	movwf	((??___fttol+0)+0)
	movf	(___fttol@f1+1),w
	movwf	((??___fttol+0)+0+1)
	movf	(___fttol@f1+2),w
	movwf	((??___fttol+0)+0+2)
	movlw	017h
u2595:
	clrc
	rrf	(??___fttol+0)+2,f
	rrf	(??___fttol+0)+1,f
	rrf	(??___fttol+0)+0,f
u2590:
	addlw	-1
	skipz
	goto	u2595
	movf	0+(??___fttol+0)+0,w
	movwf	(??___fttol+3)+0
	movf	(??___fttol+3)+0,w
	movwf	(___fttol@sign1)
	line	52
	
l2098:	
	bsf	(___fttol@f1)+(15/8),(15)&7
	line	53
	
l2100:	
	movlw	0FFh
	andwf	(___fttol@f1),f
	movlw	0FFh
	andwf	(___fttol@f1+1),f
	movlw	0
	andwf	(___fttol@f1+2),f
	line	54
	
l2102:	
	movf	(___fttol@f1),w
	movwf	(___fttol@lval)
	movf	(___fttol@f1+1),w
	movwf	((___fttol@lval))+1
	movf	(___fttol@f1+2),w
	movwf	((___fttol@lval))+2
	clrf	((___fttol@lval))+3
	line	55
	
l2104:	
	movlw	low(08Eh)
	subwf	(___fttol@exp1),f
	line	56
	
l2106:	
	btfss	(___fttol@exp1),7
	goto	u2601
	goto	u2600
u2601:
	goto	l693
u2600:
	line	57
	
l2108:	
	movf	(___fttol@exp1),w
	xorlw	80h
	addlw	-((-15)^80h)
	skipnc
	goto	u2611
	goto	u2610
u2611:
	goto	l694
u2610:
	line	58
	
l2110:	
	movlw	0
	movwf	(?___fttol+3)
	movlw	0
	movwf	(?___fttol+2)
	movlw	0
	movwf	(?___fttol+1)
	movlw	0
	movwf	(?___fttol)

	
l2112:	
	goto	l692
	
l694:	
	line	59
	
l695:	
	line	60
	
l2114:	
	movlw	01h
u2625:
	clrc
	rrf	(___fttol@lval+3),f
	rrf	(___fttol@lval+2),f
	rrf	(___fttol@lval+1),f
	rrf	(___fttol@lval),f
	addlw	-1
	skipz
	goto	u2625

	line	61
	movlw	(01h)
	movwf	(??___fttol+0)+0
	movf	(??___fttol+0)+0,w
	addwf	(___fttol@exp1),f
	btfss	status,2
	goto	u2631
	goto	u2630
u2631:
	goto	l695
u2630:
	
l696:	
	line	62
	goto	l697
	
l693:	
	line	63
	
l2116:	
	movlw	(018h)
	subwf	(___fttol@exp1),w
	skipc
	goto	u2641
	goto	u2640
u2641:
	goto	l698
u2640:
	line	64
	
l2118:	
	movlw	0
	movwf	(?___fttol+3)
	movlw	0
	movwf	(?___fttol+2)
	movlw	0
	movwf	(?___fttol+1)
	movlw	0
	movwf	(?___fttol)

	
l2120:	
	goto	l692
	
l698:	
	line	65
	goto	l699
	
l700:	
	line	66
	
l2122:	
	movlw	01h
	movwf	(??___fttol+0)+0
u2655:
	clrc
	rlf	(___fttol@lval),f
	rlf	(___fttol@lval+1),f
	rlf	(___fttol@lval+2),f
	rlf	(___fttol@lval+3),f
	decfsz	(??___fttol+0)+0
	goto	u2655
	line	67
	movlw	low(01h)
	subwf	(___fttol@exp1),f
	line	68
	
l699:	
	line	65
	
l2124:	
	movf	(___fttol@exp1),f
	skipz
	goto	u2661
	goto	u2660
u2661:
	goto	l700
u2660:
	
l701:	
	line	69
	
l697:	
	line	70
	
l2126:	
	movf	(___fttol@sign1),w
	skipz
	goto	u2670
	goto	l702
u2670:
	line	71
	
l2128:	
	comf	(___fttol@lval),f
	comf	(___fttol@lval+1),f
	comf	(___fttol@lval+2),f
	comf	(___fttol@lval+3),f
	incf	(___fttol@lval),f
	skipnz
	incf	(___fttol@lval+1),f
	skipnz
	incf	(___fttol@lval+2),f
	skipnz
	incf	(___fttol@lval+3),f
	
l702:	
	line	72
	
l2130:	
	movf	(___fttol@lval+3),w
	movwf	(?___fttol+3)
	movf	(___fttol@lval+2),w
	movwf	(?___fttol+2)
	movf	(___fttol@lval+1),w
	movwf	(?___fttol+1)
	movf	(___fttol@lval),w
	movwf	(?___fttol)

	
l2132:	
	line	73
	
l692:	
	return
	opt stack 0
GLOBAL	__end_of___fttol
	__end_of___fttol:
;; =============== function ___fttol ends ============

	signat	___fttol,4220
	global	___ftpack
psect	text235,local,class=CODE,delta=2
global __ptext235
__ptext235:

;; *************** function ___ftpack *****************
;; Defined at:
;;		line 63 in file "C:\Program Files (x86)\HI-TECH Software\PICC\9.71a\sources\float.c"
;; Parameters:    Size  Location     Type
;;  arg             3    0[COMMON] unsigned um
;;  exp             1    3[COMMON] unsigned char 
;;  sign            1    4[COMMON] unsigned char 
;; Auto vars:     Size  Location     Type
;;		None
;; Return value:  Size  Location     Type
;;                  3    0[COMMON] float 
;; Registers used:
;;		wreg, status,2, status,0
;; Tracked objects:
;;		On entry : 0/0
;;		On exit  : 0/0
;;		Unchanged: 0/0
;; Data sizes:     COMMON   BANK0   BANK1   BANK3   BANK2
;;      Params:         5       0       0       0       0
;;      Locals:         0       0       0       0       0
;;      Temps:          3       0       0       0       0
;;      Totals:         8       0       0       0       0
;;Total ram usage:        8 bytes
;; Hardware stack levels used:    1
;; This function calls:
;;		Nothing
;; This function is called by:
;;		___ftmul
;;		___awtoft
;;		___ftadd
;;		___ftdiv
;;		___lbtoft
;;		___abtoft
;;		___lwtoft
;;		___altoft
;;		___lltoft
;;		___attoft
;;		___lttoft
;; This function uses a non-reentrant model
;;
psect	text235
	file	"C:\Program Files (x86)\HI-TECH Software\PICC\9.71a\sources\float.c"
	line	63
	global	__size_of___ftpack
	__size_of___ftpack	equ	__end_of___ftpack-___ftpack
	
___ftpack:	
	opt	stack 6
; Regs used in ___ftpack: [wreg+status,2+status,0]
	line	64
	
l2016:	
	movf	(___ftpack@exp),w
	skipz
	goto	u2390
	goto	l916
u2390:
	
l2018:	
	movf	(___ftpack@arg+2),w
	iorwf	(___ftpack@arg+1),w
	iorwf	(___ftpack@arg),w
	skipz
	goto	u2401
	goto	u2400
u2401:
	goto	l914
u2400:
	
l916:	
	line	65
	
l2020:	
	movlw	0x0
	movwf	(?___ftpack)
	movlw	0x0
	movwf	(?___ftpack+1)
	movlw	0x0
	movwf	(?___ftpack+2)
	
l2022:	
	goto	l917
	
l914:	
	line	66
	goto	l918
	
l919:	
	line	67
	
l2024:	
	movlw	(01h)
	movwf	(??___ftpack+0)+0
	movf	(??___ftpack+0)+0,w
	addwf	(___ftpack@exp),f
	line	68
	movlw	01h
u2415:
	clrc
	rrf	(___ftpack@arg+2),f
	rrf	(___ftpack@arg+1),f
	rrf	(___ftpack@arg),f
	addlw	-1
	skipz
	goto	u2415

	line	69
	
l918:	
	line	66
	
l2026:	
	movlw	low highword(0FE0000h)
	andwf	(___ftpack@arg+2),w
	btfss	status,2
	goto	u2421
	goto	u2420
u2421:
	goto	l919
u2420:
	
l920:	
	line	70
	goto	l921
	
l922:	
	line	71
	
l2028:	
	movlw	(01h)
	movwf	(??___ftpack+0)+0
	movf	(??___ftpack+0)+0,w
	addwf	(___ftpack@exp),f
	line	72
	
l2030:	
	movlw	01h
	addwf	(___ftpack@arg),f
	movlw	0
	skipnc
movlw 1
	addwf	(___ftpack@arg+1),f
	movlw	0
	skipnc
movlw 1
	addwf	(___ftpack@arg+2),f
	line	73
	
l2032:	
	movlw	01h
u2435:
	clrc
	rrf	(___ftpack@arg+2),f
	rrf	(___ftpack@arg+1),f
	rrf	(___ftpack@arg),f
	addlw	-1
	skipz
	goto	u2435

	line	74
	
l921:	
	line	70
	movlw	low highword(0FF0000h)
	andwf	(___ftpack@arg+2),w
	btfss	status,2
	goto	u2441
	goto	u2440
u2441:
	goto	l922
u2440:
	
l923:	
	line	75
	goto	l924
	
l925:	
	line	76
	
l2034:	
	movlw	low(01h)
	subwf	(___ftpack@exp),f
	line	77
	movlw	01h
u2455:
	clrc
	rlf	(___ftpack@arg),f
	rlf	(___ftpack@arg+1),f
	rlf	(___ftpack@arg+2),f
	addlw	-1
	skipz
	goto	u2455
	line	78
	
l924:	
	line	75
	
l2036:	
	btfss	(___ftpack@arg+1),(15)&7
	goto	u2461
	goto	u2460
u2461:
	goto	l925
u2460:
	
l926:	
	line	79
	btfsc	(___ftpack@exp),(0)&7
	goto	u2471
	goto	u2470
u2471:
	goto	l927
u2470:
	line	80
	
l2038:	
	movlw	0FFh
	andwf	(___ftpack@arg),f
	movlw	07Fh
	andwf	(___ftpack@arg+1),f
	movlw	0FFh
	andwf	(___ftpack@arg+2),f
	
l927:	
	line	81
	clrc
	rrf	(___ftpack@exp),f

	line	82
	
l2040:	
	movf	(___ftpack@exp),w
	movwf	((??___ftpack+0)+0)
	clrf	((??___ftpack+0)+0+1)
	clrf	((??___ftpack+0)+0+2)
	movlw	010h
u2485:
	clrc
	rlf	(??___ftpack+0)+0,f
	rlf	(??___ftpack+0)+1,f
	rlf	(??___ftpack+0)+2,f
u2480:
	addlw	-1
	skipz
	goto	u2485
	movf	0+(??___ftpack+0)+0,w
	iorwf	(___ftpack@arg),f
	movf	1+(??___ftpack+0)+0,w
	iorwf	(___ftpack@arg+1),f
	movf	2+(??___ftpack+0)+0,w
	iorwf	(___ftpack@arg+2),f
	line	83
	
l2042:	
	movf	(___ftpack@sign),w
	skipz
	goto	u2490
	goto	l928
u2490:
	line	84
	
l2044:	
	bsf	(___ftpack@arg)+(23/8),(23)&7
	
l928:	
	line	85
	line	86
	
l917:	
	return
	opt stack 0
GLOBAL	__end_of___ftpack
	__end_of___ftpack:
;; =============== function ___ftpack ends ============

	signat	___ftpack,12411
psect	text236,local,class=CODE,delta=2
global __ptext236
__ptext236:
	global	btemp
	btemp set 07Eh

	DABS	1,126,2	;btemp
	global	wtemp0
	wtemp0 set btemp
	end
